(dp0
(S'2012'
p1
S'general'
p2
S'president'
p3
S'10_16_12'
p4
tp5
(lp6
S'candy crowley'
p7
as(S'2012'
p8
S'primary'
p9
S'republican'
p10
S'01_19_12'
p11
tp12
(lp13
S'john king cnn'
p14
as(S'2012'
p15
S'primary'
p16
S'republican'
p17
S'09_12_11'
p18
tp19
(lp20
S'wolf blitzer cnn'
p21
as(S'2016'
p22
S'primary'
p23
S'republican'
p24
S'main'
p25
S'11_10_15'
p26
tp27
(lp28
S'gerard baker wall street journal'
p29
aS'maria bartiromo fox'
p30
aS'neil cavuto fox'
p31
as(S'2012'
p32
S'primary'
p33
S'republican'
p34
S'10_11_11'
p35
tp36
(lp37
S'charlie rose pbs'
p38
aS'karen tumulty washington post'
p39
aS'juliana goldman bloomberg'
p40
as(S'2012'
p41
S'primary'
p42
S'republican'
p43
S'09_05_11'
p44
tp45
(lp46
S'jim'
p47
aS'demint'
p48
aS'john'
p49
aS'king'
p50
aS'cnn'
p51
aS'david'
p52
aS'gergen'
p53
aS'cnn'
p54
aS'erick'
p55
aS'erickson'
p56
aS'cnn'
p57
as(S'2012'
p58
S'primary'
p59
S'republican'
p60
S'10_18_11'
p61
tp62
(lp63
S'anderson cooper cnn'
p64
as(S'2016'
p65
S'primary'
p66
S'republican'
p67
S'main'
p68
S'02_06_16'
p69
tp70
(lp71
S'david muir abc'
p72
aS'martha raddatz abc'
p73
as(S'2016'
p74
S'primary'
p75
S'republican'
p76
S'undercard'
p77
S'11_10_15'
p78
tp79
(lp80
S'trish regan fox'
p81
aS'gerald seib wall street journal'
p82
aS'sandra smith fox'
p83
as(S'2016'
p84
S'primary'
p85
S'republican'
p86
S'undercard'
p87
S'08_06_15'
p88
tp89
(lp90
S'bill hemmer fox'
p91
aS'martha maccallum fox'
p92
as(S'2016'
p93
S'general'
p94
S'president'
p95
S'10_09_16'
p96
tp97
(lp98
g64
ag73
as(S'2016'
p99
S'primary'
p100
S'republican'
p101
S'undercard'
p102
S'09_16_15'
p103
tp104
(lp105
S'jake tapper cnn'
p106
aS'dana bash cnn'
p107
aS'hugh hewitt salem'
p108
as(S'2012'
p109
S'primary'
p110
S'republican'
p111
S'08_11_11'
p112
tp113
(lp114
S'bret baier fox'
p115
aS'susan ferrechio washington examiner'
p116
aS'chris wallace fox'
p117
aS'byron york washington examiner'
p118
as(S'2012'
p119
S'primary'
p120
S'republican'
p121
S'01_16_12'
p122
tp123
(lp124
S'brett baier fox'
p125
as(S'2016'
p126
S'primary'
p127
S'democratic'
p128
S'11_14_15'
p129
tp130
(lp131
S'nancy cordes cbs'
p132
aS'kevin cooney cbs'
p133
aS'john dickerson cbs'
p134
aS'kathie obradovich des moines register'
p135
as(S'2016'
p136
S'general'
p137
S'vice'
p138
S'10_04_16'
p139
tp140
(lp141
S'elaine quijano cbs'
p142
as(S'2012'
p143
S'primary'
p144
S'republican'
p145
S'11_09_11'
p146
tp147
(lp148
S'maria bartiromo cnbc'
p149
aS'john harwood cnbc'
p150
as(S'2016'
p151
S'primary'
p152
S'democratic'
p153
S'02_04_16'
p154
tp155
(lp156
S'chuck todd msnbc'
p157
aS'rachel maddow msnbc'
p158
as(S'2016'
p159
S'primary'
p160
S'democratic'
p161
S'12_19_15'
p162
tp163
(lp164
g73
ag72
as(S'2016'
p165
S'primary'
p166
S'republican'
p167
S'main'
p168
S'01_14_16'
p169
tp170
(lp171
g30
ag31
as(S'2016'
p172
S'primary'
p173
S'republican'
p174
S'main'
p175
S'03_03_16'
p176
tp177
(lp178
g115
aS'megyn kelly fox'
p179
ag117
as(S'2016'
p180
S'primary'
p181
S'democratic'
p182
S'03_09_16'
p183
tp184
(lp185
S'jorge ramos univision'
p186
aS'mara elena salinas univision'
p187
aS'karen tumulty washington post'
p188
as(S'2016'
p189
S'primary'
p190
S'republican'
p191
S'main'
p192
S'03_10_16'
p193
tp194
(lp195
g106
aS'dana bash cnn'
p196
ag108
aS'stephen dinan washington times'
p197
as(S'2016'
p198
S'primary'
p199
S'democratic'
p200
S'04_14_16'
p201
tp202
(lp203
S'wolf blitzer cnn'
p204
as(S'2012'
p205
S'primary'
p206
S'republican'
p207
S'12_10_11'
p208
tp209
(lp210
S'diane sawyer abc'
p211
aS'george stephanopoulos abc'
p212
as(S'2012'
p213
S'general'
p214
S'president'
p215
S'10_03_12'
p216
tp217
(lp218
S'jim lehrer'
p219
as(S'2012'
p220
S'primary'
p221
S'republican'
p222
S'01_26_12'
p223
tp224
(lp225
g204
as(S'2012'
p226
S'primary'
p227
S'republican'
p228
S'06_13_11'
p229
tp230
(lp231
S'john king cnn'
p232
as(S'2016'
p233
S'primary'
p234
S'democratic'
p235
S'02_11_16'
p236
tp237
(lp238
S'gwen ifill pbs'
p239
aS'judy woodruff pbs'
p240
as(S'2012'
p241
S'general'
p242
S'vice'
p243
S'10_11_12'
p244
tp245
(lp246
S'martha'
p247
aS'raddatz'
p248
as(S'2016'
p249
S'primary'
p250
S'republican'
p251
S'main'
p252
S'08_06_15'
p253
tp254
(lp255
g115
ag179
ag117
as(S'2012'
p256
S'primary'
p257
S'republican'
p258
S'11_22_11'
p259
tp260
(lp261
g204
as(S'2012'
p262
S'primary'
p263
S'republican'
p264
S'01_08_12'
p265
tp266
(lp267
S'david gregory nbc'
p268
as(S'2016'
p269
S'primary'
p270
S'democratic'
p271
S'01_17_16'
p272
tp273
(lp274
S'lester holt nbc'
p275
aS'andrea mitchell nbc'
p276
as(S'2016'
p277
S'primary'
p278
S'democratic'
p279
S'10_13_15'
p280
tp281
(lp282
g64
ag107
aS'don lemon cnn'
p283
aS'juan carlos lopez cnn'
p284
as(S'2016'
p285
S'primary'
p286
S'republican'
p287
S'undercard'
p288
S'10_28_15'
p289
tp290
(lp291
g150
aS'becky quick cnbc'
p292
aS'carl quintanilla cnbc'
p293
as(S'2016'
p294
S'primary'
p295
S'republican'
p296
S'undercard'
p297
S'01_28_16'
p298
tp299
(lp300
g91
ag92
as(S'2016'
p301
S'primary'
p302
S'democratic'
p303
S'03_06_16'
p304
tp305
(lp306
g64
ag283
as(S'2016'
p307
S'primary'
p308
S'republican'
p309
S'main'
p310
S'12_15_15'
p311
tp312
(lp313
g204
ag107
ag108
as(S'2012'
p314
S'primary'
p315
S'republican'
p316
S'01_07_12'
p317
tp318
(lp319
g211
aS'george stephanopoulos abc'
p320
aS'josh mcelveen wmur'
p321
as(S'2012'
p322
S'general'
p323
S'president'
p324
S'10_22_12'
p325
tp326
(lp327
S'bob schieffer'
p328
as(S'2012'
p329
S'primary'
p330
S'republican'
p331
S'02_22_12'
p332
tp333
(lp334
g14
as(S'2016'
p335
S'primary'
p336
S'republican'
p337
S'main'
p338
S'02_25_16'
p339
tp340
(lp341
S'wolf blitzer cnn'
p342
as(S'2016'
p343
S'primary'
p344
S'republican'
p345
S'main'
p346
S'10_28_15'
p347
tp348
(lp349
g150
ag292
ag293
as(S'2016'
p350
S'primary'
p351
S'republican'
p352
S'main'
p353
S'01_28_16'
p354
tp355
(lp356
g115
ag179
ag117
as(S'2012'
p357
S'primary'
p358
S'republican'
p359
S'01_23_12'
p360
tp361
(lp362
S'brian williams nbc'
p363
as(S'2016'
p364
S'primary'
p365
S'democratic'
p366
S'01_25_16'
p367
tp368
(lp369
S'chris cuomo cnn'
p370
as(S'2012'
p371
S'primary'
p372
S'republican'
p373
S'09_07_11'
p374
tp375
(lp376
g363
aS'john harris politico'
p377
aS'jose diaz balart msnbc'
p378
as(S'2012'
p379
S'primary'
p380
S'republican'
p381
S'11_12_11'
p382
tp383
(lp384
S'major garrett national journal'
p385
aS'scott pelley cbs'
p386
as(S'2016'
p387
S'primary'
p388
S'republican'
p389
S'undercard'
p390
S'12_15_15'
p391
tp392
(lp393
g204
ag107
ag108
as(S'2012'
p394
S'primary'
p395
S'republican'
p396
S'12_15_11'
p397
tp398
(lp399
g115
as(S'2016'
p400
S'primary'
p401
S'republican'
p402
S'main'
p403
S'02_13_16'
p404
tp405
(lp406
S'john dickerson cbs'
p407
as(S'2016'
p408
S'general'
p409
S'president'
p410
S'09_26_16'
p411
tp412
(lp413
g275
as(S'2012'
p414
S'primary'
p415
S'republican'
p416
S'09_22_11'
p417
tp418
(lp419
g115
ag179
ag117
as(S'2016'
p420
S'general'
p421
S'president'
p422
S'10_19_16'
p423
tp424
(lp425
g117
as(S'2016'
p426
S'primary'
p427
S'republican'
p428
S'main'
p429
S'09_16_15'
p430
tp431
(lp432
g106
ag107
ag108
as(S'2016'
p433
S'primary'
p434
S'republican'
p435
S'undercard'
p436
S'01_14_16'
p437
tp438
(lp439
g81
aS'sandra smith fox'
p440
as.