(dp0
(S'2012'
p1
S'general'
p2
S'president'
p3
S'10_16_12'
p4
tp5
(lp6
S'barack'
p7
aS'obama'
p8
aS'mitt'
p9
aS'romney'
p10
as(S'2012'
p11
S'primary'
p12
S'republican'
p13
S'01_19_12'
p14
tp15
(lp16
S'newt gingrich'
p17
aS'ron paul'
p18
aS'mitt romney'
p19
aS'rick santorum'
p20
as(S'2012'
p21
S'primary'
p22
S'republican'
p23
S'09_12_11'
p24
tp25
(lp26
S'michele bachmann'
p27
aS'herman cain'
p28
ag17
aS'jon huntsman'
p29
ag18
aS'rick perry'
p30
ag19
ag20
as(S'2016'
p31
S'primary'
p32
S'republican'
p33
S'main'
p34
S'11_10_15'
p35
tp36
(lp37
S'jeb bush'
p38
aS'ben carson'
p39
aS'ted cruz'
p40
aS'carly fiorina'
p41
aS'john kasich'
p42
aS'rand paul'
p43
aS'marco rubio'
p44
aS'donald trump'
p45
as(S'2012'
p46
S'primary'
p47
S'republican'
p48
S'10_11_11'
p49
tp50
(lp51
g27
ag28
ag17
ag29
ag18
ag30
ag19
ag20
as(S'2016'
p52
S'primary'
p53
S'democratic'
p54
S'04_14_16'
p55
tp56
(lp57
S'hillary clinton'
p58
aS'bernie sanders'
p59
as(S'2016'
p60
S'primary'
p61
S'democratic'
p62
S'02_04_16'
p63
tp64
(lp65
g58
ag59
as(S'2012'
p66
S'primary'
p67
S'republican'
p68
S'09_05_11'
p69
tp70
(lp71
g27
ag28
ag17
ag18
ag19
as(S'2012'
p72
S'primary'
p73
S'republican'
p74
S'12_15_11'
p75
tp76
(lp77
g27
ag17
ag29
ag18
ag30
ag19
ag20
as(S'2016'
p78
S'primary'
p79
S'republican'
p80
S'main'
p81
S'02_06_16'
p82
tp83
(lp84
g38
ag39
aS'chris christie'
p85
ag40
ag42
ag44
ag45
as(S'2016'
p86
S'primary'
p87
S'republican'
p88
S'undercard'
p89
S'11_10_15'
p90
tp91
(lp92
g85
aS'mike huckabee'
p93
aS'bobby jindal'
p94
aS'rick santorum'
p95
as(S'2016'
p96
S'primary'
p97
S'republican'
p98
S'undercard'
p99
S'08_06_15'
p100
tp101
(lp102
g41
aS'jim gilmore'
p103
aS'lindsey graham'
p104
ag94
aS'george pataki'
p105
aS'rick perry'
p106
ag95
as(S'2016'
p107
S'primary'
p108
S'democratic'
p109
S'03_06_16'
p110
tp111
(lp112
g58
ag59
as(S'2012'
p113
S'primary'
p114
S'republican'
p115
S'08_11_11'
p116
tp117
(lp118
g27
ag28
ag17
ag29
ag18
aS'tim pawlenty'
p119
ag19
ag20
as(S'2012'
p120
S'primary'
p121
S'republican'
p122
S'01_16_12'
p123
tp124
(lp125
g17
ag18
ag30
ag19
ag20
as(S'2016'
p126
S'primary'
p127
S'democratic'
p128
S'11_14_15'
p129
tp130
(lp131
g58
aS'martin o malley'
p132
aS'bernie sanders'
p133
as(S'2016'
p134
S'general'
p135
S'vice'
p136
S'10_04_16'
p137
tp138
(lp139
S'tim kaine'
p140
aS'mike pence'
p141
as(S'2012'
p142
S'primary'
p143
S'republican'
p144
S'11_09_11'
p145
tp146
(lp147
g27
ag28
ag17
ag29
ag18
ag30
ag19
ag20
as(S'2016'
p148
S'primary'
p149
S'republican'
p150
S'main'
p151
S'03_03_16'
p152
tp153
(lp154
g40
ag42
ag44
aS'donald trump'
p155
as(S'2016'
p156
S'primary'
p157
S'democratic'
p158
S'12_19_15'
p159
tp160
(lp161
g58
ag132
ag59
as(S'2016'
p162
S'primary'
p163
S'republican'
p164
S'main'
p165
S'01_14_16'
p166
tp167
(lp168
g38
ag39
ag85
ag40
ag42
ag44
ag45
as(S'2012'
p169
S'primary'
p170
S'republican'
p171
S'10_18_11'
p172
tp173
(lp174
g27
ag28
ag17
ag18
ag30
ag19
ag20
as(S'2016'
p175
S'primary'
p176
S'democratic'
p177
S'03_09_16'
p178
tp179
(lp180
g58
ag59
as(S'2016'
p181
S'primary'
p182
S'republican'
p183
S'main'
p184
S'03_10_16'
p185
tp186
(lp187
g40
ag42
ag44
ag155
as(S'2016'
p188
S'primary'
p189
S'democratic'
p190
S'10_13_15'
p191
tp192
(lp193
S'lincoln chafee'
p194
ag58
ag132
ag133
aS'jim webb'
p195
as(S'2012'
p196
S'primary'
p197
S'republican'
p198
S'12_10_11'
p199
tp200
(lp201
g27
ag17
ag18
ag30
ag19
ag20
as(S'2012'
p202
S'general'
p203
S'president'
p204
S'10_03_12'
p205
tp206
(lp207
S'barack'
p208
aS'obama'
p209
aS'mitt'
p210
aS'romney'
p211
as(S'2012'
p212
S'primary'
p213
S'republican'
p214
S'01_26_12'
p215
tp216
(lp217
g17
ag18
ag19
ag20
as(S'2012'
p218
S'primary'
p219
S'republican'
p220
S'06_13_11'
p221
tp222
(lp223
g27
ag28
ag17
ag18
ag119
ag19
ag20
as(S'2016'
p224
S'primary'
p225
S'democratic'
p226
S'02_11_16'
p227
tp228
(lp229
g58
ag59
as(S'2012'
p230
S'general'
p231
S'vice'
p232
S'10_11_12'
p233
tp234
(lp235
S'joe'
p236
aS'biden'
p237
aS'paul'
p238
aS'ryan'
p239
as(S'2016'
p240
S'primary'
p241
S'republican'
p242
S'main'
p243
S'08_06_15'
p244
tp245
(lp246
g38
ag39
ag85
ag40
ag93
ag42
ag43
ag44
ag45
aS'scott walker'
p247
as(S'2012'
p248
S'primary'
p249
S'republican'
p250
S'11_22_11'
p251
tp252
(lp253
g27
ag28
ag17
ag29
ag18
ag30
ag19
ag20
as(S'2012'
p254
S'primary'
p255
S'republican'
p256
S'01_08_12'
p257
tp258
(lp259
g17
ag29
ag18
ag30
ag19
ag20
as(S'2016'
p260
S'primary'
p261
S'democratic'
p262
S'01_17_16'
p263
tp264
(lp265
g58
ag132
ag59
as(S'2016'
p266
S'primary'
p267
S'republican'
p268
S'undercard'
p269
S'09_16_15'
p270
tp271
(lp272
g104
ag94
ag105
ag95
as(S'2016'
p273
S'primary'
p274
S'republican'
p275
S'undercard'
p276
S'10_28_15'
p277
tp278
(lp279
g104
ag94
ag105
ag95
as(S'2016'
p280
S'primary'
p281
S'republican'
p282
S'undercard'
p283
S'01_28_16'
p284
tp285
(lp286
g41
ag103
ag93
ag95
as(S'2016'
p287
S'primary'
p288
S'republican'
p289
S'main'
p290
S'02_13_16'
p291
tp292
(lp293
g38
ag39
ag40
ag42
ag44
ag45
as(S'2016'
p294
S'primary'
p295
S'republican'
p296
S'main'
p297
S'12_15_15'
p298
tp299
(lp300
g38
ag39
ag85
ag40
ag41
ag42
ag43
ag44
ag45
as(S'2012'
p301
S'primary'
p302
S'republican'
p303
S'01_07_12'
p304
tp305
(lp306
g17
ag29
ag18
ag30
ag19
ag20
as(S'2012'
p307
S'general'
p308
S'president'
p309
S'10_22_12'
p310
tp311
(lp312
S'barack'
p313
aS'obama'
p314
aS'mitt'
p315
aS'romney'
p316
as(S'2012'
p317
S'primary'
p318
S'republican'
p319
S'02_22_12'
p320
tp321
(lp322
g17
ag18
ag19
ag20
as(S'2016'
p323
S'primary'
p324
S'republican'
p325
S'main'
p326
S'02_25_16'
p327
tp328
(lp329
g39
ag40
ag42
ag44
ag45
as(S'2016'
p330
S'primary'
p331
S'republican'
p332
S'main'
p333
S'10_28_15'
p334
tp335
(lp336
g38
ag39
ag85
ag40
ag41
ag93
ag42
ag43
ag44
ag45
as(S'2016'
p337
S'primary'
p338
S'republican'
p339
S'main'
p340
S'01_28_16'
p341
tp342
(lp343
g38
ag39
ag85
ag40
ag42
ag43
ag44
as(S'2012'
p344
S'primary'
p345
S'republican'
p346
S'01_23_12'
p347
tp348
(lp349
g17
ag18
ag19
ag20
as(S'2016'
p350
S'primary'
p351
S'democratic'
p352
S'01_25_16'
p353
tp354
(lp355
g58
ag132
ag59
as(S'2012'
p356
S'primary'
p357
S'republican'
p358
S'09_07_11'
p359
tp360
(lp361
g27
ag28
ag17
ag29
ag18
ag30
ag19
ag20
as(S'2012'
p362
S'primary'
p363
S'republican'
p364
S'11_12_11'
p365
tp366
(lp367
g27
ag28
ag17
ag29
ag18
ag30
ag19
ag20
as(S'2016'
p368
S'primary'
p369
S'republican'
p370
S'undercard'
p371
S'12_15_15'
p372
tp373
(lp374
g104
ag93
ag105
ag95
as(S'2016'
p375
S'general'
p376
S'president'
p377
S'10_09_16'
p378
tp379
(lp380
S'hillary clinton'
p381
aS'donald trump'
p382
as(S'2016'
p383
S'general'
p384
S'president'
p385
S'09_26_16'
p386
tp387
(lp388
g381
ag382
as(S'2012'
p389
S'primary'
p390
S'republican'
p391
S'09_22_11'
p392
tp393
(lp394
g27
ag28
ag17
ag29
aS'gary johnson'
p395
ag18
ag30
ag19
ag20
as(S'2016'
p396
S'general'
p397
S'president'
p398
S'10_19_16'
p399
tp400
(lp401
g381
ag382
as(S'2016'
p402
S'primary'
p403
S'republican'
p404
S'main'
p405
S'09_16_15'
p406
tp407
(lp408
g38
ag39
ag85
ag40
ag41
ag93
ag42
ag43
ag44
ag45
ag247
as(S'2016'
p409
S'primary'
p410
S'republican'
p411
S'undercard'
p412
S'01_14_16'
p413
tp414
(lp415
g41
ag93
ag95
as.