ccopy_reg
_reconstructor
p0
(cpandas.core.frame
DataFrame
p1
c__builtin__
object
p2
Ntp3
Rp4
(dp5
S'_metadata'
p6
(lp7
sS'_typ'
p8
S'dataframe'
p9
sS'_data'
p10
g0
(cpandas.core.internals.managers
BlockManager
p11
g2
Ntp12
Rp13
((lp14
cpandas.core.indexes.base
_new_Index
p15
(cpandas.core.indexes.range
RangeIndex
p16
(dp17
S'start'
p18
I0
sS'step'
p19
I1
sS'stop'
p20
I2
sS'name'
p21
Nstp22
Rp23
ag15
(g16
(dp24
g18
I0
sg19
I1
sg20
I98
sg21
Nstp25
Rp26
a(lp27
cnumpy.core.multiarray
_reconstruct
p28
(cnumpy
ndarray
p29
(I0
tp30
S'b'
p31
tp32
Rp33
(I1
(I2
I98
tp34
cnumpy
dtype
p35
(S'O8'
p36
I0
I1
tp37
Rp38
(I3
S'|'
p39
NNNI-1
I-1
I63
tp40
bI00
(lp41
S'colleague'
p42
aS'particularly'
p43
aS'acknowledge'
p44
aS'measure'
p45
aS'months'
p46
aS'essentially'
p47
aS'indicated'
p48
aS'extraordinary'
p49
aS'mother'
p50
aS'sensible'
p51
aS'billion'
p52
aS'immigrants'
p53
aS'view'
p54
aS'want'
p55
aS'moreover'
p56
aS'aca'
p57
aS'evening'
p58
aS'people'
p59
aS'week'
p60
aS'pleased'
p61
aS'seconds'
p62
aS'companies'
p63
aS'changes'
p64
aS'able'
p65
aS'values'
p66
aS'underserved'
p67
aS'problems'
p68
aS'adopted'
p69
aS'bad'
p70
aS'cities'
p71
aS'woman'
p72
aS'undermine'
p73
aS'eliminates'
p74
aS'undocumented'
p75
aS'cuts'
p76
aS'tax'
p77
aS'workers'
p78
aS'parks'
p79
aS'congress'
p80
aS'oppose'
p81
aS'lives'
p82
aS'concerned'
p83
aS'colleagues'
p84
aS'seniors'
p85
aS'capacity'
p86
aS'deny'
p87
aS'brought'
p88
aS'provide'
p89
aS'supported'
p90
aS'protect'
p91
aS'country'
p92
aS'democracy'
p93
aS'ensure'
p94
aS'protecting'
p95
aS'rates'
p96
aS'program'
p97
aS'consumers'
p98
aS'children'
p99
aS'policy'
p100
aS'create'
p101
aS'institute'
p102
aS'deficit'
p103
aS'rape'
p104
aS'leaving'
p105
aS'difficult'
p106
aS'statement'
p107
aS'nothing'
p108
aS'sexual'
p109
aS'homeowners'
p110
aS'investors'
p111
aS'commitments'
p112
aS'wars'
p113
aS'require'
p114
aS'question'
p115
aS'programs'
p116
aS'ports'
p117
aS'bridge'
p118
aS'partners'
p119
aS'corporations'
p120
aS'agreement'
p121
aS'hope'
p122
aS'shutdown'
p123
aS'police'
p124
aS'americans'
p125
aS'delta'
p126
aS'region'
p127
aS'taking'
p128
aS'enable'
p129
aS'inferior'
p130
aS'joy'
p131
aS'plentiful'
p132
aS'qualified'
p133
aS'cry'
p134
aS'clever'
p135
aS'rapid'
p136
aS'famous'
p137
aS'useful'
p138
aS'disloyal'
p139
aS'friend'
p140
aS'especially'
p141
aS'recognize'
p142
aS'legislation'
p143
aS'years'
p144
aS'basically'
p145
aS'stated'
p146
aS'incredible'
p147
aS'father'
p148
aS'commonsense'
p149
aS'trillion'
p150
aS'aliens'
p151
aS'opinion'
p152
aS'wanted'
p153
aS'additionally'
p154
aS'obamacare'
p155
aS'morning'
p156
aS'folks'
p157
aS'year'
p158
aS'happy'
p159
aS'minutes'
p160
aS'manufacturers'
p161
aS'reforms'
p162
aS'willing'
p163
aS'principles'
p164
aS'rural'
p165
aS'problem'
p166
aS'passed'
p167
aS'good'
p168
aS'counties'
p169
aS'man'
p170
aS'destroy'
p171
aS'provides'
p172
aS'illegal'
p173
aS'increases'
p174
aS'taxes'
p175
aS'employees'
p176
aS'forests'
p177
aS'body'
p178
aS'support'
p179
aS'life'
p180
aS'talking'
p181
aS'friends'
p182
aS'patients'
p183
aS'capability'
p184
aS'give'
p185
aS'bringing'
p186
aS'deliver'
p187
aS'sponsored'
p188
aS'defend'
p189
aS'globe'
p190
aS'freedom'
p191
aS'ensures'
p192
aS'defending'
p193
aS'prices'
p194
aS'project'
p195
aS'taxpayers'
p196
aS'babies'
p197
aS'policies'
p198
aS'produce'
p199
aS'foundation'
p200
aS'debt'
p201
aS'murder'
p202
aS'left'
p203
aS'tough'
p204
aS'comments'
p205
aS'something'
p206
aS'sex'
p207
aS'farmers'
p208
aS'inventors'
p209
aS'promises'
p210
aS'war'
p211
aS'include'
p212
aS'questions'
p213
aS'activities'
p214
aS'borders'
p215
aS'fence'
p216
aS'allies'
p217
aS'businesses'
p218
aS'treaty'
p219
aS'believe'
p220
aS'takeover'
p221
aS'fire'
p222
aS'hoosiers'
p223
aS'lake'
p224
aS'area'
p225
aS'takes'
p226
aS'encourage'
p227
aS'superior'
p228
aS'sorrow'
p229
aS'scarce'
p230
aS'unqualified'
p231
aS'laugh'
p232
aS'stupid'
p233
aS'slow'
p234
aS'unknown'
p235
aS'useless'
p236
aS'loyal'
p237
atp238
ba(lp239
g15
(g16
(dp240
g18
I0
sg19
I1
sg20
I2
sg21
Nstp241
Rp242
a(dp243
S'0.14.1'
p244
(dp245
S'axes'
p246
g14
sS'blocks'
p247
(lp248
(dp249
S'mgr_locs'
p250
c__builtin__
slice
p251
(I0
I2
I1
tp252
Rp253
sS'values'
p254
g33
sasstp255
bsb.